; Function Attrs: nounwind uwtable
define internal fastcc range(i32 0, 2) i32 @test_explicit_EVP_CIPHER_fetch(ptr noundef %0) unnamed_addr #1 {
  %2 = alloca ptr, align 8
  %3 = alloca [2 x ptr], align 16
  call void @llvm.lifetime.start.p0(i64 8, ptr nonnull %2) #7
  store ptr null, ptr %2, align 8, !tbaa !11
  call void @llvm.lifetime.start.p0(i64 16, ptr nonnull %3) #7
  call void @llvm.memset.p0.i64(ptr noundef nonnull align 16 dereferenceable(16) %3, i8 0, i64 16, i1 false)
  %.b7 = load i1, ptr @use_default_ctx, align 4
  br i1 %.b7, label %._crit_edge, label %4

4:                                                ; preds = %1
  %5 = call fastcc i32 @load_providers(ptr noundef %2, ptr noundef %3)
  %.not = icmp eq i32 %5, 0
  %.val.pre = load ptr, ptr %2, align 8
  br i1 %.not, label %20, label %._crit_edge

._crit_edge:                                      ; preds = %4, %1
  %6 = phi ptr [ null, %1 ], [ %.val.pre, %4 ]
  %7 = load ptr, ptr @fetch_property, align 8, !tbaa !6
  %8 = tail call ptr @EVP_CIPHER_fetch(ptr noundef %6, ptr noundef %0, ptr noundef %7) #7
  %.b = load i1, ptr @expected_fetch_result, align 4
  br i1 %.b, label %17, label %9

9:                                                ; preds = %._crit_edge
  %10 = tail call fastcc i32 @test_cipher(ptr noundef %8)
  %.not9 = icmp eq i32 %10, 0
  br i1 %.not9, label %20, label %11

11:                                               ; preds = %9
  %12 = tail call i32 @EVP_CIPHER_up_ref(ptr noundef %8) #7
  %13 = icmp ne i32 %12, 0
  %14 = zext i1 %13 to i32
  %15 = tail call i32 @test_true(ptr noundef nonnull @.str.33, i32 noundef 323, ptr noundef nonnull @.str.72, i32 noundef %14) #7
  %.not10 = icmp eq i32 %15, 0
  br i1 %.not10, label %20, label %16

16:                                               ; preds = %11
  tail call void @EVP_CIPHER_free(ptr noundef %8) #7
  br label %19

17:                                               ; preds = %._crit_edge
  %18 = tail call i32 @test_ptr_null(ptr noundef nonnull @.str.33, i32 noundef 328, ptr noundef nonnull @.str.60, ptr noundef %8) #7
  %.not8 = icmp eq i32 %18, 0
  br i1 %.not8, label %20, label %19

19:                                               ; preds = %17, %16
  br label %20

20:                                               ; preds = %17, %11, %9, %4, %19
  %.val = phi ptr [ %6, %19 ], [ %6, %11 ], [ %6, %9 ], [ %6, %17 ], [ %.val.pre, %4 ]
  %.06 = phi ptr [ %8, %19 ], [ %8, %11 ], [ %8, %9 ], [ %8, %17 ], [ null, %4 ]
  %.0 = phi i32 [ 1, %19 ], [ 0, %11 ], [ 0, %9 ], [ 0, %17 ], [ 0, %4 ]
  tail call void @EVP_CIPHER_free(ptr noundef %.06) #7
  %.val11 = load ptr, ptr %3, align 16, !tbaa !13
  %21 = getelementptr inbounds nuw i8, ptr %3, i64 8
  %.val12 = load ptr, ptr %21, align 8
  %.not.i = icmp eq ptr %.val11, null
  br i1 %.not.i, label %24, label %22

22:                                               ; preds = %20
  %23 = tail call i32 @OSSL_PROVIDER_unload(ptr noundef nonnull %.val11) #7
  br label %24

24:                                               ; preds = %22, %20
  %.not11.i = icmp eq ptr %.val12, null
  br i1 %.not11.i, label %27, label %25

25:                                               ; preds = %24
  %26 = tail call i32 @OSSL_PROVIDER_unload(ptr noundef nonnull %.val12) #7
  br label %27

27:                                               ; preds = %25, %24
  %.not12.i = icmp eq ptr %.val, null
  br i1 %.not12.i, label %unload_providers.exit, label %28

28:                                               ; preds = %27
  tail call void @OPENSSL_thread_stop_ex(ptr noundef nonnull %.val) #7
  tail call void @OSSL_LIB_CTX_free(ptr noundef nonnull %.val) #7
  br label %unload_providers.exit

unload_providers.exit:                            ; preds = %27, %28
  call void @llvm.lifetime.end.p0(i64 16, ptr nonnull %3) #7
  call void @llvm.lifetime.end.p0(i64 8, ptr nonnull %2) #7
  ret i32 %.0
}